target datalayout = "e-m:e-p270:32:32-p271:32:32-p272:64:64-i64:64-i128:128-f80:128-n8:16:32:64-S128"
target triple = "x86_64-pc-linux-gnu"

; Function Attrs: inlinehint nounwind uwtable
define internal i32 @Kit_TruthWordNum(i32 noundef %0) #2 {
  %2 = alloca i32, align 4
  store i32 %0, ptr %2, align 4, !tbaa !8
  %3 = load i32, ptr %2, align 4, !tbaa !8
  %4 = icmp sle i32 %3, 5
  br i1 %4, label %5, label %6

5:                                                ; preds = %1
  br label %10

6:                                                ; preds = %1
  %7 = load i32, ptr %2, align 4, !tbaa !8
  %8 = sub nsw i32 %7, 5
  %9 = shl i32 1, %8
  br label %10

10:                                               ; preds = %6, %5
  %11 = phi i32 [ 1, %5 ], [ %9, %6 ]
  ret i32 %11
}

; Function Attrs: nounwind uwtable
define void @Kit_TruthChangePhase(ptr noundef %0, i32 noundef %1, i32 noundef %2) #0 {
  %4 = alloca ptr, align 8
  %5 = alloca i32, align 4
  %6 = alloca i32, align 4
  %7 = alloca i32, align 4
  %8 = alloca i32, align 4
  %9 = alloca i32, align 4
  %10 = alloca i32, align 4
  %11 = alloca i32, align 4
  %12 = alloca i32, align 4
  store ptr %0, ptr %4, align 8, !tbaa !3
  store i32 %1, ptr %5, align 4, !tbaa !8
  store i32 %2, ptr %6, align 4, !tbaa !8
  call void @llvm.lifetime.start.p0(i64 4, ptr %7) #8
  %13 = load i32, ptr %5, align 4, !tbaa !8
  %14 = call i32 @Kit_TruthWordNum(i32 noundef %13)
  store i32 %14, ptr %7, align 4, !tbaa !8
  call void @llvm.lifetime.start.p0(i64 4, ptr %8) #8
  call void @llvm.lifetime.start.p0(i64 4, ptr %9) #8
  call void @llvm.lifetime.start.p0(i64 4, ptr %10) #8
  call void @llvm.lifetime.start.p0(i64 4, ptr %11) #8
  %15 = load i32, ptr %6, align 4, !tbaa !8
  switch i32 %15, label %161 [
    i32 0, label %16
    i32 1, label %45
    i32 2, label %74
    i32 3, label %103
    i32 4, label %132
  ]

16:                                               ; preds = %3
  store i32 0, ptr %8, align 4, !tbaa !8
  br label %17

17:                                               ; preds = %41, %16
  %18 = load i32, ptr %8, align 4, !tbaa !8
  %19 = load i32, ptr %7, align 4, !tbaa !8
  %20 = icmp slt i32 %18, %19
  br i1 %20, label %21, label %44

21:                                               ; preds = %17
  %22 = load ptr, ptr %4, align 8, !tbaa !3
  %23 = load i32, ptr %8, align 4, !tbaa !8
  %24 = sext i32 %23 to i64
  %25 = getelementptr inbounds i32, ptr %22, i64 %24
  %26 = load i32, ptr %25, align 4, !tbaa !8
  %27 = and i32 %26, 1431655765
  %28 = shl i32 %27, 1
  %29 = load ptr, ptr %4, align 8, !tbaa !3
  %30 = load i32, ptr %8, align 4, !tbaa !8
  %31 = sext i32 %30 to i64
  %32 = getelementptr inbounds i32, ptr %29, i64 %31
  %33 = load i32, ptr %32, align 4, !tbaa !8
  %34 = and i32 %33, -1431655766
  %35 = lshr i32 %34, 1
  %36 = or i32 %28, %35
  %37 = load ptr, ptr %4, align 8, !tbaa !3
  %38 = load i32, ptr %8, align 4, !tbaa !8
  %39 = sext i32 %38 to i64
  %40 = getelementptr inbounds i32, ptr %37, i64 %39
  store i32 %36, ptr %40, align 4, !tbaa !8
  br label %41

41:                                               ; preds = %21
  %42 = load i32, ptr %8, align 4, !tbaa !8
  %43 = add nsw i32 %42, 1
  store i32 %43, ptr %8, align 4, !tbaa !8
  br label %17, !llvm.loop !149

44:                                               ; preds = %17
  store i32 1, ptr %12, align 4
  br label %213

45:                                               ; preds = %3
  store i32 0, ptr %8, align 4, !tbaa !8
  br label %46

46:                                               ; preds = %70, %45
  %47 = load i32, ptr %8, align 4, !tbaa !8
  %48 = load i32, ptr %7, align 4, !tbaa !8
  %49 = icmp slt i32 %47, %48
  br i1 %49, label %50, label %73

50:                                               ; preds = %46
  %51 = load ptr, ptr %4, align 8, !tbaa !3
  %52 = load i32, ptr %8, align 4, !tbaa !8
  %53 = sext i32 %52 to i64
  %54 = getelementptr inbounds i32, ptr %51, i64 %53
  %55 = load i32, ptr %54, align 4, !tbaa !8
  %56 = and i32 %55, 858993459
  %57 = shl i32 %56, 2
  %58 = load ptr, ptr %4, align 8, !tbaa !3
  %59 = load i32, ptr %8, align 4, !tbaa !8
  %60 = sext i32 %59 to i64
  %61 = getelementptr inbounds i32, ptr %58, i64 %60
  %62 = load i32, ptr %61, align 4, !tbaa !8
  %63 = and i32 %62, -858993460
  %64 = lshr i32 %63, 2
  %65 = or i32 %57, %64
  %66 = load ptr, ptr %4, align 8, !tbaa !3
  %67 = load i32, ptr %8, align 4, !tbaa !8
  %68 = sext i32 %67 to i64
  %69 = getelementptr inbounds i32, ptr %66, i64 %68
  store i32 %65, ptr %69, align 4, !tbaa !8
  br label %70

70:                                               ; preds = %50
  %71 = load i32, ptr %8, align 4, !tbaa !8
  %72 = add nsw i32 %71, 1
  store i32 %72, ptr %8, align 4, !tbaa !8
  br label %46, !llvm.loop !150

73:                                               ; preds = %46
  store i32 1, ptr %12, align 4
  br label %213

74:                                               ; preds = %3
  store i32 0, ptr %8, align 4, !tbaa !8
  br label %75

75:                                               ; preds = %99, %74
  %76 = load i32, ptr %8, align 4, !tbaa !8
  %77 = load i32, ptr %7, align 4, !tbaa !8
  %78 = icmp slt i32 %76, %77
  br i1 %78, label %79, label %102

79:                                               ; preds = %75
  %80 = load ptr, ptr %4, align 8, !tbaa !3
  %81 = load i32, ptr %8, align 4, !tbaa !8
  %82 = sext i32 %81 to i64
  %83 = getelementptr inbounds i32, ptr %80, i64 %82
  %84 = load i32, ptr %83, align 4, !tbaa !8
  %85 = and i32 %84, 252645135
  %86 = shl i32 %85, 4
  %87 = load ptr, ptr %4, align 8, !tbaa !3
  %88 = load i32, ptr %8, align 4, !tbaa !8
  %89 = sext i32 %88 to i64
  %90 = getelementptr inbounds i32, ptr %87, i64 %89
  %91 = load i32, ptr %90, align 4, !tbaa !8
  %92 = and i32 %91, -252645136
  %93 = lshr i32 %92, 4
  %94 = or i32 %86, %93
  %95 = load ptr, ptr %4, align 8, !tbaa !3
  %96 = load i32, ptr %8, align 4, !tbaa !8
  %97 = sext i32 %96 to i64
  %98 = getelementptr inbounds i32, ptr %95, i64 %97
  store i32 %94, ptr %98, align 4, !tbaa !8
  br label %99

99:                                               ; preds = %79
  %100 = load i32, ptr %8, align 4, !tbaa !8
  %101 = add nsw i32 %100, 1
  store i32 %101, ptr %8, align 4, !tbaa !8
  br label %75, !llvm.loop !151

102:                                              ; preds = %75
  store i32 1, ptr %12, align 4
  br label %213

103:                                              ; preds = %3
  store i32 0, ptr %8, align 4, !tbaa !8
  br label %104

104:                                              ; preds = %128, %103
  %105 = load i32, ptr %8, align 4, !tbaa !8
  %106 = load i32, ptr %7, align 4, !tbaa !8
  %107 = icmp slt i32 %105, %106
  br i1 %107, label %108, label %131

108:                                              ; preds = %104
  %109 = load ptr, ptr %4, align 8, !tbaa !3
  %110 = load i32, ptr %8, align 4, !tbaa !8
  %111 = sext i32 %110 to i64
  %112 = getelementptr inbounds i32, ptr %109, i64 %111
  %113 = load i32, ptr %112, align 4, !tbaa !8
  %114 = and i32 %113, 16711935
  %115 = shl i32 %114, 8
  %116 = load ptr, ptr %4, align 8, !tbaa !3
  %117 = load i32, ptr %8, align 4, !tbaa !8
  %118 = sext i32 %117 to i64
  %119 = getelementptr inbounds i32, ptr %116, i64 %118
  %120 = load i32, ptr %119, align 4, !tbaa !8
  %121 = and i32 %120, -16711936
  %122 = lshr i32 %121, 8
  %123 = or i32 %115, %122
  %124 = load ptr, ptr %4, align 8, !tbaa !3
  %125 = load i32, ptr %8, align 4, !tbaa !8
  %126 = sext i32 %125 to i64
  %127 = getelementptr inbounds i32, ptr %124, i64 %126
  store i32 %123, ptr %127, align 4, !tbaa !8
  br label %128

128:                                              ; preds = %108
  %129 = load i32, ptr %8, align 4, !tbaa !8
  %130 = add nsw i32 %129, 1
  store i32 %130, ptr %8, align 4, !tbaa !8
  br label %104, !llvm.loop !152

131:                                              ; preds = %104
  store i32 1, ptr %12, align 4
  br label %213

132:                                              ; preds = %3
  store i32 0, ptr %8, align 4, !tbaa !8
  br label %133

133:                                              ; preds = %157, %132
  %134 = load i32, ptr %8, align 4, !tbaa !8
  %135 = load i32, ptr %7, align 4, !tbaa !8
  %136 = icmp slt i32 %134, %135
  br i1 %136, label %137, label %160

137:                                              ; preds = %133
  %138 = load ptr, ptr %4, align 8, !tbaa !3
  %139 = load i32, ptr %8, align 4, !tbaa !8
  %140 = sext i32 %139 to i64
  %141 = getelementptr inbounds i32, ptr %138, i64 %140
  %142 = load i32, ptr %141, align 4, !tbaa !8
  %143 = and i32 %142, 65535
  %144 = shl i32 %143, 16
  %145 = load ptr, ptr %4, align 8, !tbaa !3
  %146 = load i32, ptr %8, align 4, !tbaa !8
  %147 = sext i32 %146 to i64
  %148 = getelementptr inbounds i32, ptr %145, i64 %147
  %149 = load i32, ptr %148, align 4, !tbaa !8
  %150 = and i32 %149, -65536
  %151 = lshr i32 %150, 16
  %152 = or i32 %144, %151
  %153 = load ptr, ptr %4, align 8, !tbaa !3
  %154 = load i32, ptr %8, align 4, !tbaa !8
  %155 = sext i32 %154 to i64
  %156 = getelementptr inbounds i32, ptr %153, i64 %155
  store i32 %152, ptr %156, align 4, !tbaa !8
  br label %157

157:                                              ; preds = %137
  %158 = load i32, ptr %8, align 4, !tbaa !8
  %159 = add nsw i32 %158, 1
  store i32 %159, ptr %8, align 4, !tbaa !8
  br label %133, !llvm.loop !153

160:                                              ; preds = %133
  store i32 1, ptr %12, align 4
  br label %213

161:                                              ; preds = %3
  %162 = load i32, ptr %6, align 4, !tbaa !8
  %163 = sub nsw i32 %162, 5
  %164 = shl i32 1, %163
  store i32 %164, ptr %10, align 4, !tbaa !8
  store i32 0, ptr %9, align 4, !tbaa !8
  br label %165

165:                                              ; preds = %207, %161
  %166 = load i32, ptr %9, align 4, !tbaa !8
  %167 = load i32, ptr %7, align 4, !tbaa !8
  %168 = icmp slt i32 %166, %167
  br i1 %168, label %169, label %212

169:                                              ; preds = %165
  store i32 0, ptr %8, align 4, !tbaa !8
  br label %170

170:                                              ; preds = %198, %169
  %171 = load i32, ptr %8, align 4, !tbaa !8
  %172 = load i32, ptr %10, align 4, !tbaa !8
  %173 = icmp slt i32 %171, %172
  br i1 %173, label %174, label %201

174:                                              ; preds = %170
  %175 = load ptr, ptr %4, align 8, !tbaa !3
  %176 = load i32, ptr %8, align 4, !tbaa !8
  %177 = sext i32 %176 to i64
  %178 = getelementptr inbounds i32, ptr %175, i64 %177
  %179 = load i32, ptr %178, align 4, !tbaa !8
  store i32 %179, ptr %11, align 4, !tbaa !8
  %180 = load ptr, ptr %4, align 8, !tbaa !3
  %181 = load i32, ptr %10, align 4, !tbaa !8
  %182 = load i32, ptr %8, align 4, !tbaa !8
  %183 = add nsw i32 %181, %182
  %184 = sext i32 %183 to i64
  %185 = getelementptr inbounds i32, ptr %180, i64 %184
  %186 = load i32, ptr %185, align 4, !tbaa !8
  %187 = load ptr, ptr %4, align 8, !tbaa !3
  %188 = load i32, ptr %8, align 4, !tbaa !8
  %189 = sext i32 %188 to i64
  %190 = getelementptr inbounds i32, ptr %187, i64 %189
  store i32 %186, ptr %190, align 4, !tbaa !8
  %191 = load i32, ptr %11, align 4, !tbaa !8
  %192 = load ptr, ptr %4, align 8, !tbaa !3
  %193 = load i32, ptr %10, align 4, !tbaa !8
  %194 = load i32, ptr %8, align 4, !tbaa !8
  %195 = add nsw i32 %193, %194
  %196 = sext i32 %195 to i64
  %197 = getelementptr inbounds i32, ptr %192, i64 %196
  store i32 %191, ptr %197, align 4, !tbaa !8
  br label %198

198:                                              ; preds = %174
  %199 = load i32, ptr %8, align 4, !tbaa !8
  %200 = add nsw i32 %199, 1
  store i32 %200, ptr %8, align 4, !tbaa !8
  br label %170, !llvm.loop !154

201:                                              ; preds = %170
  %202 = load i32, ptr %10, align 4, !tbaa !8
  %203 = mul nsw i32 2, %202
  %204 = load ptr, ptr %4, align 8, !tbaa !3
  %205 = sext i32 %203 to i64
  %206 = getelementptr inbounds i32, ptr %204, i64 %205
  store ptr %206, ptr %4, align 8, !tbaa !3
  br label %207

207:                                              ; preds = %201
  %208 = load i32, ptr %10, align 4, !tbaa !8
  %209 = mul nsw i32 2, %208
  %210 = load i32, ptr %9, align 4, !tbaa !8
  %211 = add nsw i32 %210, %209
  store i32 %211, ptr %9, align 4, !tbaa !8
  br label %165, !llvm.loop !155

212:                                              ; preds = %165
  store i32 1, ptr %12, align 4
  br label %213

213:                                              ; preds = %212, %160, %131, %102, %73, %44
  call void @llvm.lifetime.end.p0(i64 4, ptr %11) #8
  call void @llvm.lifetime.end.p0(i64 4, ptr %10) #8
  call void @llvm.lifetime.end.p0(i64 4, ptr %9) #8
  call void @llvm.lifetime.end.p0(i64 4, ptr %8) #8
  call void @llvm.lifetime.end.p0(i64 4, ptr %7) #8
  ret void
}